; Function Attrs: mustprogress uwtable
define void @_ZN13sentencepiece10normalizer10Normalizer25DecodePrecompiledCharsMapESt17basic_string_viewIcSt11char_traitsIcEEPS5_S6_PNSt7__cxx1112basic_stringIcS4_SaIcEEE(ptr dead_on_unwind noalias writable sret(%"class.sentencepiece::util::Status") align 8 %0, i64 %1, ptr %2, ptr noundef writeonly captures(none) %3, ptr noundef writeonly captures(none) %4, ptr noundef readnone captures(none) %5) local_unnamed_addr #3 align 2 personality ptr @__gxx_personality_v0 {
  %7 = icmp ult i64 %1, 5
  br i1 %7, label %8, label %9

8:                                                ; preds = %6
  tail call void @_ZN13sentencepiece4util6StatusC1ENS0_10StatusCodeESt17basic_string_viewIcSt11char_traitsIcEE(ptr noundef nonnull align 8 dereferenceable(8) %0, i32 noundef 13, i64 38, ptr nonnull @.str.8)
  br label %18

9:                                                ; preds = %6
  %10 = load i32, ptr %2, align 1
  %11 = zext i32 %10 to i64
  %.not = icmp ugt i64 %1, %11
  br i1 %.not, label %13, label %12

12:                                               ; preds = %9
  tail call void @_ZN13sentencepiece4util6StatusC1ENS0_10StatusCodeESt17basic_string_viewIcSt11char_traitsIcEE(ptr noundef nonnull align 8 dereferenceable(8) %0, i32 noundef 13, i64 43, ptr nonnull @.str.9)
  br label %18

13:                                               ; preds = %9
  %14 = getelementptr inbounds nuw i8, ptr %2, i64 4
  %15 = add i64 %1, -4
  store i64 %11, ptr %3, align 8, !tbaa !71
  %.sroa.43.0..sroa_idx = getelementptr inbounds nuw i8, ptr %3, i64 8
  store ptr %14, ptr %.sroa.43.0..sroa_idx, align 8, !tbaa !72
  %16 = getelementptr inbounds nuw i8, ptr %14, i64 %11
  %17 = sub i64 %15, %11
  store i64 %17, ptr %4, align 8, !tbaa !71
  %.sroa.4.0..sroa_idx = getelementptr inbounds nuw i8, ptr %4, i64 8
  store ptr %16, ptr %.sroa.4.0..sroa_idx, align 8, !tbaa !72
  tail call void @_ZN13sentencepiece4util6StatusC1Ev(ptr noundef nonnull align 8 dereferenceable(8) %0)
  br label %18

18:                                               ; preds = %13, %12, %8
  ret void
}